target datalayout = "e-m:e-p270:32:32-p271:32:32-p272:64:64-i64:64-i128:128-f80:128-n8:16:32:64-S128"
target triple = "x86_64-unknown-linux-gnu"

%"class.QuantLib::LfmCovarianceProxy" = type { %"class.QuantLib::LfmCovarianceParameterization", %"class.boost::shared_ptr.6", %"class.boost::shared_ptr.7" }
%"class.QuantLib::LfmCovarianceParameterization" = type { ptr, i64, i64 }
%"class.boost::shared_ptr.6" = type { ptr, %"class.boost::detail::shared_count" }
%"class.boost::detail::shared_count" = type { ptr }
%"class.boost::shared_ptr.7" = type { ptr, %"class.boost::detail::shared_count" }
%"class.QuantLib::LfmCovarianceProxy::Var_Helper" = type { i64, i64, ptr, ptr }

; Function Attrs: mustprogress nounwind uwtable
define linkonce_odr noundef ptr @_ZNK5boost10shared_ptrIN8QuantLib18LmCorrelationModelEE3getEv(ptr noundef nonnull align 8 dereferenceable(16) %this) #3 comdat align 2 {
entry:
  %this.addr = alloca ptr, align 8
  store ptr %this, ptr %this.addr, align 8, !tbaa !3
  %this1 = load ptr, ptr %this.addr, align 8
  %px = getelementptr inbounds nuw %"class.boost::shared_ptr.7", ptr %this1, i32 0, i32 0
  %0 = load ptr, ptr %px, align 8, !tbaa !9
  ret ptr %0
}

; Function Attrs: mustprogress nounwind uwtable
define linkonce_odr noundef ptr @_ZNK5boost10shared_ptrIN8QuantLib17LmVolatilityModelEE3getEv(ptr noundef nonnull align 8 dereferenceable(16) %this) #3 comdat align 2 {
entry:
  %this.addr = alloca ptr, align 8
  store ptr %this, ptr %this.addr, align 8, !tbaa !3
  %this1 = load ptr, ptr %this.addr, align 8
  %px = getelementptr inbounds nuw %"class.boost::shared_ptr.6", ptr %this1, i32 0, i32 0
  %0 = load ptr, ptr %px, align 8, !tbaa !17
  ret ptr %0
}

; Function Attrs: mustprogress nounwind uwtable
define void @_ZN8QuantLib18LfmCovarianceProxy10Var_HelperC2EPKS0_mm(ptr noundef nonnull align 8 dereferenceable(32) %this, ptr noundef %proxy, i64 noundef %i, i64 noundef %j) unnamed_addr #3 align 2 {
entry:
  %this.addr = alloca ptr, align 8
  %proxy.addr = alloca ptr, align 8
  %i.addr = alloca i64, align 8
  %j.addr = alloca i64, align 8
  store ptr %this, ptr %this.addr, align 8, !tbaa !3
  store ptr %proxy, ptr %proxy.addr, align 8, !tbaa !3
  store i64 %i, ptr %i.addr, align 8, !tbaa !12
  store i64 %j, ptr %j.addr, align 8, !tbaa !12
  %this1 = load ptr, ptr %this.addr, align 8
  %i_ = getelementptr inbounds nuw %"class.QuantLib::LfmCovarianceProxy::Var_Helper", ptr %this1, i32 0, i32 0
  %0 = load i64, ptr %i.addr, align 8, !tbaa !12
  store i64 %0, ptr %i_, align 8, !tbaa !35
  %j_ = getelementptr inbounds nuw %"class.QuantLib::LfmCovarianceProxy::Var_Helper", ptr %this1, i32 0, i32 1
  %1 = load i64, ptr %j.addr, align 8, !tbaa !12
  store i64 %1, ptr %j_, align 8, !tbaa !37
  %volaModel_ = getelementptr inbounds nuw %"class.QuantLib::LfmCovarianceProxy::Var_Helper", ptr %this1, i32 0, i32 2
  %2 = load ptr, ptr %proxy.addr, align 8, !tbaa !3
  %volaModel_2 = getelementptr inbounds nuw %"class.QuantLib::LfmCovarianceProxy", ptr %2, i32 0, i32 1
  %call = call noundef ptr @_ZNK5boost10shared_ptrIN8QuantLib17LmVolatilityModelEE3getEv(ptr noundef nonnull align 8 dereferenceable(16) %volaModel_2) #17
  store ptr %call, ptr %volaModel_, align 8, !tbaa !38
  %corrModel_ = getelementptr inbounds nuw %"class.QuantLib::LfmCovarianceProxy::Var_Helper", ptr %this1, i32 0, i32 3
  %3 = load ptr, ptr %proxy.addr, align 8, !tbaa !3
  %corrModel_3 = getelementptr inbounds nuw %"class.QuantLib::LfmCovarianceProxy", ptr %3, i32 0, i32 2
  %call4 = call noundef ptr @_ZNK5boost10shared_ptrIN8QuantLib18LmCorrelationModelEE3getEv(ptr noundef nonnull align 8 dereferenceable(16) %corrModel_3) #17
  store ptr %call4, ptr %corrModel_, align 8, !tbaa !39
  ret void
}