; Function Attrs: mustprogress nofree norecurse nosync nounwind willreturn memory(argmem: readwrite) uwtable
define void @_ZN8QuantLib18LfmCovarianceProxy10Var_HelperC2EPKS0_mm(ptr nocapture noundef nonnull writeonly align 8 dereferenceable(32) %this, ptr nocapture noundef readonly %proxy, i64 noundef %i, i64 noundef %j) unnamed_addr #9 align 2 {
entry:
  store i64 %i, ptr %this, align 8, !tbaa !43
  %j_ = getelementptr inbounds nuw i8, ptr %this, i64 8
  store i64 %j, ptr %j_, align 8, !tbaa !45
  %volaModel_ = getelementptr inbounds nuw i8, ptr %this, i64 16
  %volaModel_2 = getelementptr inbounds nuw i8, ptr %proxy, i64 24
  %0 = load ptr, ptr %volaModel_2, align 8, !tbaa !16
  store ptr %0, ptr %volaModel_, align 8, !tbaa !46
  %corrModel_ = getelementptr inbounds nuw i8, ptr %this, i64 24
  %corrModel_3 = getelementptr inbounds nuw i8, ptr %proxy, i64 40
  %1 = load ptr, ptr %corrModel_3, align 8, !tbaa !3
  store ptr %1, ptr %corrModel_, align 8, !tbaa !47
  ret void
}